(lp1
S'http://www.indeed.com/rc/clk?jk=8d97320310512701'
p2
aS'http://www.indeed.com/rc/clk?jk=45e89a248fe79f15'
p3
aS'http://www.indeed.com/rc/clk?jk=9ff80ba3f3423821'
p4
aS'http://www.indeed.com/rc/clk?jk=b96ad80587828408'
p5
aS'http://www.indeed.com/rc/clk?jk=3fc3bdb158f79f31'
p6
aS'http://www.indeed.com/rc/clk?jk=0493462a278221cf'
p7
aS'http://www.indeed.com/rc/clk?jk=74660463c3e3ffbe'
p8
aS'http://www.indeed.com/rc/clk?jk=78984a07ae6be7b3'
p9
aS'http://www.indeed.com/rc/clk?jk=b41293b67b2e45cd'
p10
a.