(lp1
S'http://www.indeed.com/rc/clk?jk=8ed04277581e4acf'
p2
aS'http://www.indeed.com/rc/clk?jk=9ff80ba3f3423821'
p3
aS'http://www.indeed.com/rc/clk?jk=44d733959e433c7a'
p4
aS'http://www.indeed.com/rc/clk?jk=8813e0cfe4042805'
p5
aS'http://www.indeed.com/rc/clk?jk=1551c8c9448db95b'
p6
aS'http://www.indeed.com/rc/clk?jk=b96ad80587828408'
p7
aS'http://www.indeed.com/rc/clk?jk=d5df77f1d71c1f28'
p8
aS'http://www.indeed.com/rc/clk?jk=74660463c3e3ffbe'
p9
aS'http://www.indeed.com/rc/clk?jk=ad883fedf5b4b026'
p10
a.