(lp1
S'http://www.indeed.com/rc/clk?jk=e95491e045d87177'
p2
aS'http://www.indeed.com/rc/clk?jk=9ff80ba3f3423821'
p3
aS'http://www.indeed.com/rc/clk?jk=74660463c3e3ffbe'
p4
aS'http://www.indeed.com/rc/clk?jk=0ae4357894e028f9'
p5
aS'http://www.indeed.com/rc/clk?jk=45e89a248fe79f15'
p6
aS'http://www.indeed.com/rc/clk?jk=a412956cc98a8f3f'
p7
aS'http://www.indeed.com/rc/clk?jk=0adfc07903c3226a'
p8
aS'http://www.indeed.com/rc/clk?jk=ad883fedf5b4b026'
p9
aS'http://www.indeed.com/rc/clk?jk=92b728ced64cc649'
p10
a.